target datalayout = "e-m:e-p270:32:32-p271:32:32-p272:64:64-i64:64-i128:128-f80:128-n8:16:32:64-S128"
target triple = "x86_64-pc-linux-gnu"

%struct.v3_ext_method = type { i32, i32, ptr, ptr, ptr, ptr, ptr, ptr, ptr, ptr, ptr, ptr, ptr, ptr }

; Function Attrs: nounwind uwtable
define hidden i32 @X509V3_EXT_add_list(ptr noundef %0) #0 {
  %2 = alloca i32, align 4
  %3 = alloca ptr, align 8
  store ptr %0, ptr %3, align 8, !tbaa !6
  br label %4

4:                                                ; preds = %15, %1
  %5 = load ptr, ptr %3, align 8, !tbaa !6
  %6 = getelementptr inbounds nuw %struct.v3_ext_method, ptr %5, i32 0, i32 0
  %7 = load i32, ptr %6, align 8, !tbaa !15
  %8 = icmp ne i32 %7, -1
  br i1 %8, label %9, label %18

9:                                                ; preds = %4
  %10 = load ptr, ptr %3, align 8, !tbaa !6
  %11 = call i32 @X509V3_EXT_add(ptr noundef %10)
  %12 = icmp ne i32 %11, 0
  br i1 %12, label %14, label %13

13:                                               ; preds = %9
  store i32 0, ptr %2, align 4
  br label %19

14:                                               ; preds = %9
  br label %15

15:                                               ; preds = %14
  %16 = load ptr, ptr %3, align 8, !tbaa !6
  %17 = getelementptr inbounds nuw %struct.v3_ext_method, ptr %16, i32 1
  store ptr %17, ptr %3, align 8, !tbaa !6
  br label %4, !llvm.loop !34

18:                                               ; preds = %4
  store i32 1, ptr %2, align 4
  br label %19

19:                                               ; preds = %18, %13
  %20 = load i32, ptr %2, align 4
  ret i32 %20
}