; Function Attrs: nounwind uwtable
define hidden range(i32 0, 2) i32 @X509V3_EXT_add_list(ptr noundef %0) local_unnamed_addr #0 {
  %2 = load i32, ptr %0, align 8, !tbaa !17
  %.not5 = icmp eq i32 %2, -1
  br i1 %.not5, label %._crit_edge, label %.lr.ph

3:                                                ; preds = %.lr.ph
  %4 = getelementptr inbounds nuw i8, ptr %.06, i64 104
  %5 = load i32, ptr %4, align 8, !tbaa !17
  %.not = icmp eq i32 %5, -1
  br i1 %.not, label %._crit_edge, label %.lr.ph, !llvm.loop !28

.lr.ph:                                           ; preds = %1, %3
  %.06 = phi ptr [ %4, %3 ], [ %0, %1 ]
  %6 = tail call i32 @X509V3_EXT_add(ptr noundef nonnull %.06)
  %.not4 = icmp eq i32 %6, 0
  br i1 %.not4, label %._crit_edge, label %3

._crit_edge:                                      ; preds = %.lr.ph, %3, %1
  %.03 = phi i32 [ 1, %1 ], [ 1, %3 ], [ 0, %.lr.ph ]
  ret i32 %.03
}